target datalayout = "e-m:e-p270:32:32-p271:32:32-p272:64:64-i64:64-i128:128-f80:128-n8:16:32:64-S128"
target triple = "x86_64-pc-linux-gnu"

%struct.asn1_string_st = type { i32, i32, ptr, i64 }

@.str = private unnamed_addr constant [123 x i8] c"generated/home/dtcxzyw/WorkSpace/Projects/compilers/llvm-opt-benchmark/bench/libquic/libquic/boringssl/crypto/asn1/a_int.c\00", align 1

; Function Attrs: nounwind uwtable
define hidden i32 @ASN1_INTEGER_set(ptr noundef %0, i64 noundef %1) #0 {
  %3 = alloca i32, align 4
  %4 = alloca ptr, align 8
  %5 = alloca i64, align 8
  %6 = alloca i32, align 4
  %7 = alloca i32, align 4
  %8 = alloca i32, align 4
  %9 = alloca [9 x i8], align 1
  %10 = alloca i64, align 8
  %11 = alloca i32, align 4
  store ptr %0, ptr %4, align 8, !tbaa !6
  store i64 %1, ptr %5, align 8, !tbaa !29
  call void @llvm.lifetime.start.p0(i64 4, ptr %6) #8
  call void @llvm.lifetime.start.p0(i64 4, ptr %7) #8
  call void @llvm.lifetime.start.p0(i64 4, ptr %8) #8
  call void @llvm.lifetime.start.p0(i64 9, ptr %9) #8
  call void @llvm.lifetime.start.p0(i64 8, ptr %10) #8
  %12 = load ptr, ptr %4, align 8, !tbaa !6
  %13 = getelementptr inbounds nuw %struct.asn1_string_st, ptr %12, i32 0, i32 1
  store i32 2, ptr %13, align 4, !tbaa !11
  %14 = load ptr, ptr %4, align 8, !tbaa !6
  %15 = getelementptr inbounds nuw %struct.asn1_string_st, ptr %14, i32 0, i32 0
  %16 = load i32, ptr %15, align 8, !tbaa !20
  %17 = icmp slt i32 %16, 9
  br i1 %17, label %18, label %37

18:                                               ; preds = %2
  %19 = load ptr, ptr %4, align 8, !tbaa !6
  %20 = getelementptr inbounds nuw %struct.asn1_string_st, ptr %19, i32 0, i32 2
  %21 = load ptr, ptr %20, align 8, !tbaa !21
  %22 = icmp ne ptr %21, null
  br i1 %22, label %23, label %27

23:                                               ; preds = %18
  %24 = load ptr, ptr %4, align 8, !tbaa !6
  %25 = getelementptr inbounds nuw %struct.asn1_string_st, ptr %24, i32 0, i32 2
  %26 = load ptr, ptr %25, align 8, !tbaa !21
  call void @free(ptr noundef %26) #8
  br label %27

27:                                               ; preds = %23, %18
  %28 = call noalias ptr @malloc(i64 noundef 9) #9
  %29 = load ptr, ptr %4, align 8, !tbaa !6
  %30 = getelementptr inbounds nuw %struct.asn1_string_st, ptr %29, i32 0, i32 2
  store ptr %28, ptr %30, align 8, !tbaa !21
  %31 = icmp ne ptr %28, null
  br i1 %31, label %32, label %36

32:                                               ; preds = %27
  %33 = load ptr, ptr %4, align 8, !tbaa !6
  %34 = getelementptr inbounds nuw %struct.asn1_string_st, ptr %33, i32 0, i32 2
  %35 = load ptr, ptr %34, align 8, !tbaa !21
  call void @llvm.memset.p0.i64(ptr align 1 %35, i8 0, i64 9, i1 false)
  br label %36

36:                                               ; preds = %32, %27
  br label %37

37:                                               ; preds = %36, %2
  %38 = load ptr, ptr %4, align 8, !tbaa !6
  %39 = getelementptr inbounds nuw %struct.asn1_string_st, ptr %38, i32 0, i32 2
  %40 = load ptr, ptr %39, align 8, !tbaa !21
  %41 = icmp eq ptr %40, null
  br i1 %41, label %42, label %43

42:                                               ; preds = %37
  call void @ERR_put_error(i32 noundef 12, i32 noundef 0, i32 noundef 65, ptr noundef @.str, i32 noundef 360)
  store i32 0, ptr %3, align 4
  store i32 1, ptr %11, align 4
  br label %99

43:                                               ; preds = %37
  %44 = load i64, ptr %5, align 8, !tbaa !29
  store i64 %44, ptr %10, align 8, !tbaa !29
  %45 = load i64, ptr %10, align 8, !tbaa !29
  %46 = icmp slt i64 %45, 0
  br i1 %46, label %47, label %52

47:                                               ; preds = %43
  %48 = load i64, ptr %10, align 8, !tbaa !29
  %49 = sub nsw i64 0, %48
  store i64 %49, ptr %10, align 8, !tbaa !29
  %50 = load ptr, ptr %4, align 8, !tbaa !6
  %51 = getelementptr inbounds nuw %struct.asn1_string_st, ptr %50, i32 0, i32 1
  store i32 258, ptr %51, align 4, !tbaa !11
  br label %52

52:                                               ; preds = %47, %43
  store i32 0, ptr %8, align 4, !tbaa !16
  br label %53

53:                                               ; preds = %71, %52
  %54 = load i32, ptr %8, align 4, !tbaa !16
  %55 = zext i32 %54 to i64
  %56 = icmp ult i64 %55, 8
  br i1 %56, label %57, label %74

57:                                               ; preds = %53
  %58 = load i64, ptr %10, align 8, !tbaa !29
  %59 = icmp eq i64 %58, 0
  br i1 %59, label %60, label %61

60:                                               ; preds = %57
  br label %74

61:                                               ; preds = %57
  %62 = load i64, ptr %10, align 8, !tbaa !29
  %63 = trunc i64 %62 to i32
  %64 = and i32 %63, 255
  %65 = trunc i32 %64 to i8
  %66 = load i32, ptr %8, align 4, !tbaa !16
  %67 = zext i32 %66 to i64
  %68 = getelementptr inbounds nuw [9 x i8], ptr %9, i64 0, i64 %67
  store i8 %65, ptr %68, align 1, !tbaa !19
  %69 = load i64, ptr %10, align 8, !tbaa !29
  %70 = ashr i64 %69, 8
  store i64 %70, ptr %10, align 8, !tbaa !29
  br label %71

71:                                               ; preds = %61
  %72 = load i32, ptr %8, align 4, !tbaa !16
  %73 = add i32 %72, 1
  store i32 %73, ptr %8, align 4, !tbaa !16
  br label %53, !llvm.loop !32

74:                                               ; preds = %60, %53
  store i32 0, ptr %6, align 4, !tbaa !16
  %75 = load i32, ptr %8, align 4, !tbaa !16
  %76 = sub i32 %75, 1
  store i32 %76, ptr %7, align 4, !tbaa !16
  br label %77

77:                                               ; preds = %92, %74
  %78 = load i32, ptr %7, align 4, !tbaa !16
  %79 = icmp sge i32 %78, 0
  br i1 %79, label %80, label %95

80:                                               ; preds = %77
  %81 = load i32, ptr %7, align 4, !tbaa !16
  %82 = sext i32 %81 to i64
  %83 = getelementptr inbounds [9 x i8], ptr %9, i64 0, i64 %82
  %84 = load i8, ptr %83, align 1, !tbaa !19
  %85 = load ptr, ptr %4, align 8, !tbaa !6
  %86 = getelementptr inbounds nuw %struct.asn1_string_st, ptr %85, i32 0, i32 2
  %87 = load ptr, ptr %86, align 8, !tbaa !21
  %88 = load i32, ptr %6, align 4, !tbaa !16
  %89 = add nsw i32 %88, 1
  store i32 %89, ptr %6, align 4, !tbaa !16
  %90 = sext i32 %88 to i64
  %91 = getelementptr inbounds i8, ptr %87, i64 %90
  store i8 %84, ptr %91, align 1, !tbaa !19
  br label %92

92:                                               ; preds = %80
  %93 = load i32, ptr %7, align 4, !tbaa !16
  %94 = add nsw i32 %93, -1
  store i32 %94, ptr %7, align 4, !tbaa !16
  br label %77, !llvm.loop !33

95:                                               ; preds = %77
  %96 = load i32, ptr %6, align 4, !tbaa !16
  %97 = load ptr, ptr %4, align 8, !tbaa !6
  %98 = getelementptr inbounds nuw %struct.asn1_string_st, ptr %97, i32 0, i32 0
  store i32 %96, ptr %98, align 8, !tbaa !20
  store i32 1, ptr %3, align 4
  store i32 1, ptr %11, align 4
  br label %99

99:                                               ; preds = %95, %42
  call void @llvm.lifetime.end.p0(i64 8, ptr %10) #8
  call void @llvm.lifetime.end.p0(i64 9, ptr %9) #8
  call void @llvm.lifetime.end.p0(i64 4, ptr %8) #8
  call void @llvm.lifetime.end.p0(i64 4, ptr %7) #8
  call void @llvm.lifetime.end.p0(i64 4, ptr %6) #8
  %100 = load i32, ptr %3, align 4
  ret i32 %100
}