; Function Attrs: nounwind uwtable
define hidden range(i32 0, 2) i32 @ASN1_INTEGER_set(ptr noundef captures(none) initializes((4, 8)) %0, i64 noundef %1) local_unnamed_addr #0 {
  %3 = alloca [9 x i8], align 1
  call void @llvm.lifetime.start.p0(i64 9, ptr nonnull %3) #10
  %4 = getelementptr inbounds nuw i8, ptr %0, i64 4
  store i32 2, ptr %4, align 4, !tbaa !6
  %5 = load i32, ptr %0, align 8, !tbaa !14
  %6 = icmp slt i32 %5, 9
  %7 = getelementptr inbounds nuw i8, ptr %0, i64 8
  %8 = load ptr, ptr %7, align 8, !tbaa !15
  %.not = icmp eq ptr %8, null
  br i1 %6, label %9, label %12

9:                                                ; preds = %2
  br i1 %.not, label %11, label %10

10:                                               ; preds = %9
  tail call void @free(ptr noundef nonnull %8) #10
  br label %11

11:                                               ; preds = %10, %9
  %calloc = tail call dereferenceable_or_null(9) ptr @calloc(i64 1, i64 9)
  store ptr %calloc, ptr %7, align 8, !tbaa !15
  %.not35 = icmp eq ptr %calloc, null
  br i1 %.not35, label %.thread, label %.thread52

12:                                               ; preds = %2
  br i1 %.not, label %.thread, label %.thread52

.thread:                                          ; preds = %11, %12
  tail call void @ERR_put_error(i32 noundef 12, i32 noundef 0, i32 noundef 65, ptr noundef nonnull @.str, i32 noundef 360) #10
  br label %29

.thread52:                                        ; preds = %11, %12
  %13 = getelementptr inbounds nuw i8, ptr %0, i64 8
  %14 = icmp slt i64 %1, 0
  br i1 %14, label %.thread53, label %16

.thread53:                                        ; preds = %.thread52
  %15 = sub nsw i64 0, %1
  store i32 258, ptr %4, align 4, !tbaa !6
  br label %.lr.ph.preheader

16:                                               ; preds = %.thread52
  %17 = icmp eq i64 %1, 0
  br i1 %17, label %._crit_edge, label %.lr.ph.preheader

.lr.ph.preheader:                                 ; preds = %.thread53, %16
  %.137.ph = phi i64 [ %1, %16 ], [ %15, %.thread53 ]
  br label %.lr.ph

.lr.ph40.preheader:                               ; preds = %.lr.ph
  %18 = trunc nuw nsw i64 %indvars.iv.next to i32
  %19 = and i64 %indvars.iv.next, 4294967295
  br label %.lr.ph40

.lr.ph:                                           ; preds = %.lr.ph.preheader, %.lr.ph
  %indvars.iv = phi i64 [ %indvars.iv.next, %.lr.ph ], [ 0, %.lr.ph.preheader ]
  %.137 = phi i64 [ %22, %.lr.ph ], [ %.137.ph, %.lr.ph.preheader ]
  %20 = trunc i64 %.137 to i8
  %21 = getelementptr inbounds nuw [9 x i8], ptr %3, i64 0, i64 %indvars.iv
  store i8 %20, ptr %21, align 1, !tbaa !16
  %22 = lshr i64 %.137, 8
  %indvars.iv.next = add nuw nsw i64 %indvars.iv, 1
  %23 = icmp samesign ugt i64 %indvars.iv, 6
  %24 = icmp ult i64 %.137, 256
  %or.cond = select i1 %23, i1 true, i1 %24
  br i1 %or.cond, label %.lr.ph40.preheader, label %.lr.ph, !llvm.loop !28

.lr.ph40:                                         ; preds = %.lr.ph40.preheader, %.lr.ph40
  %indvars.iv46 = phi i64 [ 0, %.lr.ph40.preheader ], [ %indvars.iv.next47, %.lr.ph40 ]
  %indvars.iv44 = phi i64 [ %19, %.lr.ph40.preheader ], [ %indvars.iv.next45, %.lr.ph40 ]
  %indvars.iv.next45 = add nsw i64 %indvars.iv44, -1
  %25 = getelementptr inbounds nuw [9 x i8], ptr %3, i64 0, i64 %indvars.iv.next45
  %26 = load i8, ptr %25, align 1, !tbaa !16
  %27 = load ptr, ptr %13, align 8, !tbaa !15
  %indvars.iv.next47 = add nuw nsw i64 %indvars.iv46, 1
  %28 = getelementptr inbounds nuw i8, ptr %27, i64 %indvars.iv46
  store i8 %26, ptr %28, align 1, !tbaa !16
  %exitcond.not = icmp eq i64 %indvars.iv.next47, %19
  br i1 %exitcond.not, label %._crit_edge, label %.lr.ph40, !llvm.loop !29

._crit_edge:                                      ; preds = %.lr.ph40, %16
  %.028.lcssa = phi i32 [ 0, %16 ], [ %18, %.lr.ph40 ]
  store i32 %.028.lcssa, ptr %0, align 8, !tbaa !14
  br label %29

29:                                               ; preds = %._crit_edge, %.thread
  %.029 = phi i32 [ 0, %.thread ], [ 1, %._crit_edge ]
  call void @llvm.lifetime.end.p0(i64 9, ptr nonnull %3) #10
  ret i32 %.029
}